; Function Attrs: nounwind uwtable
define i64 @ff_me_search_tdls(ptr noundef %0, i32 noundef %1, i32 noundef %2, ptr noundef captures(none) initializes((0, 8)) %3) local_unnamed_addr #2 {
  %5 = getelementptr inbounds nuw i8, ptr %0, i64 36
  %6 = load i32, ptr %5, align 4, !tbaa !15
  %7 = getelementptr inbounds nuw i8, ptr %0, i64 24
  %8 = load i32, ptr %7, align 8, !tbaa !13
  %9 = sub nsw i32 %1, %8
  %. = tail call i32 @llvm.smax.i32(i32 %6, i32 %9)
  %10 = getelementptr inbounds nuw i8, ptr %0, i64 44
  %11 = load i32, ptr %10, align 4, !tbaa !17
  %12 = sub nsw i32 %2, %8
  %13 = tail call i32 @llvm.smax.i32(i32 %11, i32 %12)
  %14 = add nsw i32 %8, %1
  %15 = getelementptr inbounds nuw i8, ptr %0, i64 40
  %16 = load i32, ptr %15, align 8, !tbaa !16
  %17 = tail call i32 @llvm.smin.i32(i32 %14, i32 %16)
  %18 = add nsw i32 %8, %2
  %19 = getelementptr inbounds nuw i8, ptr %0, i64 48
  %20 = load i32, ptr %19, align 8, !tbaa !18
  %21 = tail call i32 @llvm.smin.i32(i32 %18, i32 %20)
  store i32 %1, ptr %3, align 4, !tbaa !26
  %22 = getelementptr inbounds nuw i8, ptr %3, i64 4
  store i32 %2, ptr %22, align 4, !tbaa !26
  %23 = getelementptr inbounds nuw i8, ptr %0, i64 232
  %24 = load ptr, ptr %23, align 8, !tbaa !14
  %25 = tail call i64 %24(ptr noundef %0, i32 noundef %1, i32 noundef %2, i32 noundef %1, i32 noundef %2) #4
  %.not = icmp eq i64 %25, 0
  br i1 %.not, label %.loopexit, label %.preheader.preheader

.preheader.preheader:                             ; preds = %4
  %.inv = icmp sgt i32 %8, -1
  %.v = select i1 %.inv, i32 1, i32 -1
  %26 = add nsw i32 %.v, %8
  %27 = sdiv i32 %26, 2
  %.pre = load i32, ptr %3, align 4, !tbaa !26
  br label %.preheader

.preheader:                                       ; preds = %.preheader.preheader, %55
  %28 = phi i32 [ %49, %55 ], [ %.pre, %.preheader.preheader ]
  %.087 = phi i64 [ %.2, %55 ], [ %25, %.preheader.preheader ]
  %.086 = phi i32 [ %.1, %55 ], [ %27, %.preheader.preheader ]
  %29 = load i32, ptr %22, align 4, !tbaa !26
  br label %30

30:                                               ; preds = %.preheader, %47
  %indvars.iv = phi i64 [ 0, %.preheader ], [ %indvars.iv.next, %47 ]
  %.188110 = phi i64 [ %.087, %.preheader ], [ %.2, %47 ]
  %31 = getelementptr inbounds nuw [4 x [2 x i8]], ptr @dia1, i64 0, i64 %indvars.iv
  %32 = load i8, ptr %31, align 1, !tbaa !22
  %33 = sext i8 %32 to i32
  %34 = mul nsw i32 %.086, %33
  %35 = add nsw i32 %34, %28
  %.not105 = icmp slt i32 %35, %.
  %.not106 = icmp sgt i32 %35, %17
  %or.cond = select i1 %.not105, i1 true, i1 %.not106
  br i1 %or.cond, label %47, label %36

36:                                               ; preds = %30
  %37 = getelementptr inbounds nuw i8, ptr %31, i64 1
  %38 = load i8, ptr %37, align 1, !tbaa !22
  %39 = sext i8 %38 to i32
  %40 = mul nsw i32 %.086, %39
  %41 = add nsw i32 %40, %29
  %.not107 = icmp slt i32 %41, %13
  %.not108 = icmp sgt i32 %41, %21
  %or.cond109 = select i1 %.not107, i1 true, i1 %.not108
  br i1 %or.cond109, label %47, label %42

42:                                               ; preds = %36
  %43 = load ptr, ptr %23, align 8, !tbaa !14
  %44 = tail call i64 %43(ptr noundef %0, i32 noundef %1, i32 noundef %2, i32 noundef %35, i32 noundef %41) #4
  %45 = icmp ult i64 %44, %.188110
  br i1 %45, label %46, label %47

46:                                               ; preds = %42
  store i32 %35, ptr %3, align 4, !tbaa !26
  store i32 %41, ptr %22, align 4, !tbaa !26
  br label %47

47:                                               ; preds = %30, %36, %46, %42
  %.2 = phi i64 [ %44, %46 ], [ %.188110, %42 ], [ %.188110, %36 ], [ %.188110, %30 ]
  %indvars.iv.next = add nuw nsw i64 %indvars.iv, 1
  %exitcond.not = icmp eq i64 %indvars.iv.next, 4
  br i1 %exitcond.not, label %48, label %30, !llvm.loop !31

48:                                               ; preds = %47
  %49 = load i32, ptr %3, align 4, !tbaa !26
  %50 = icmp eq i32 %28, %49
  br i1 %50, label %51, label %55

51:                                               ; preds = %48
  %52 = load i32, ptr %22, align 4, !tbaa !26
  %53 = icmp eq i32 %29, %52
  %54 = zext i1 %53 to i32
  %spec.select = ashr i32 %.086, %54
  br label %55

55:                                               ; preds = %51, %48
  %.1 = phi i32 [ %.086, %48 ], [ %spec.select, %51 ]
  %56 = icmp sgt i32 %.1, 0
  br i1 %56, label %.preheader, label %.loopexit, !llvm.loop !32

.loopexit:                                        ; preds = %55, %4
  %.089 = phi i64 [ 0, %4 ], [ %.2, %55 ]
  ret i64 %.089
}